; Function Attrs: mustprogress uwtable
define hidden void @_ZN4cvc58internal6theory2uf16TheoryUfRewriterC2EPNS0_11NodeManagerE(ptr noundef nonnull align 8 dereferenceable(64) initializes((8, 16), (24, 28), (32, 40)) %0, ptr noundef %1) unnamed_addr #3 align 2 personality ptr @__gxx_personality_v0 {
  %3 = getelementptr inbounds nuw i8, ptr %0, i64 8
  store ptr %1, ptr %3, align 8, !tbaa !3
  %4 = getelementptr inbounds nuw i8, ptr %0, i64 24
  store i32 0, ptr %4, align 8, !tbaa !19
  %5 = getelementptr inbounds nuw i8, ptr %0, i64 32
  store ptr null, ptr %5, align 8, !tbaa !20
  %6 = getelementptr inbounds nuw i8, ptr %0, i64 40
  store ptr %4, ptr %6, align 8, !tbaa !21
  %7 = getelementptr inbounds nuw i8, ptr %0, i64 48
  store ptr %4, ptr %7, align 8, !tbaa !22
  %8 = getelementptr inbounds nuw i8, ptr %0, i64 56
  store i64 0, ptr %8, align 8, !tbaa !23
  store ptr getelementptr inbounds nuw inrange(-16, 88) (i8, ptr @_ZTVN4cvc58internal6theory2uf16TheoryUfRewriterE, i64 16), ptr %0, align 8, !tbaa !24
  invoke void @_ZN4cvc58internal6theory14TheoryRewriter24registerProofRewriteRuleENS_16ProofRewriteRuleENS1_16TheoryRewriteCtxE(ptr noundef nonnull align 8 dereferenceable(64) %0, i32 noundef 12, i32 noundef 0)
          to label %9 unwind label %14

9:                                                ; preds = %2
  invoke void @_ZN4cvc58internal6theory14TheoryRewriter24registerProofRewriteRuleENS_16ProofRewriteRuleENS1_16TheoryRewriteCtxE(ptr noundef nonnull align 8 dereferenceable(64) %0, i32 noundef 13, i32 noundef 0)
          to label %10 unwind label %14

10:                                               ; preds = %9
  invoke void @_ZN4cvc58internal6theory14TheoryRewriter24registerProofRewriteRuleENS_16ProofRewriteRuleENS1_16TheoryRewriteCtxE(ptr noundef nonnull align 8 dereferenceable(64) %0, i32 noundef 3, i32 noundef 0)
          to label %11 unwind label %14

11:                                               ; preds = %10
  invoke void @_ZN4cvc58internal6theory14TheoryRewriter24registerProofRewriteRuleENS_16ProofRewriteRuleENS1_16TheoryRewriteCtxE(ptr noundef nonnull align 8 dereferenceable(64) %0, i32 noundef 4, i32 noundef 0)
          to label %12 unwind label %14

12:                                               ; preds = %11
  invoke void @_ZN4cvc58internal6theory14TheoryRewriter24registerProofRewriteRuleENS_16ProofRewriteRuleENS1_16TheoryRewriteCtxE(ptr noundef nonnull align 8 dereferenceable(64) %0, i32 noundef 14, i32 noundef 0)
          to label %13 unwind label %14

13:                                               ; preds = %12
  ret void

14:                                               ; preds = %12, %11, %10, %9, %2
  %15 = landingpad { ptr, i32 }
          cleanup
  tail call void @_ZN4cvc58internal6theory14TheoryRewriterD2Ev(ptr noundef nonnull align 8 dereferenceable(64) %0) #20
  resume { ptr, i32 } %15
}